target datalayout = "e-m:e-p270:32:32-p271:32:32-p272:64:64-i64:64-i128:128-f80:128-n8:16:32:64-S128"
target triple = "x86_64-pc-linux-gnu"

@MaxCaptureNum = internal global i32 32767, align 4

; Function Attrs: nounwind uwtable
define dso_local i32 @onig_set_capture_num_limit(i32 noundef %0) #0 {
  %2 = alloca i32, align 4
  %3 = alloca i32, align 4
  store i32 %0, ptr %3, align 4, !tbaa !10
  %4 = load i32, ptr %3, align 4, !tbaa !10
  %5 = icmp slt i32 %4, 0
  br i1 %5, label %6, label %7

6:                                                ; preds = %1
  store i32 -1, ptr %2, align 4
  br label %9

7:                                                ; preds = %1
  %8 = load i32, ptr %3, align 4, !tbaa !10
  store i32 %8, ptr @MaxCaptureNum, align 4, !tbaa !10
  store i32 0, ptr %2, align 4
  br label %9

9:                                                ; preds = %7, %6
  %10 = load i32, ptr %2, align 4
  ret i32 %10
}