; Function Attrs: mustprogress nofree norecurse nosync nounwind willreturn memory(write, argmem: none, inaccessiblemem: none) uwtable
define dso_local range(i32 -1, 1) i32 @onig_set_capture_num_limit(i32 noundef %0) local_unnamed_addr #1 {
  %2 = icmp slt i32 %0, 0
  br i1 %2, label %4, label %3

3:                                                ; preds = %1
  store i32 %0, ptr @MaxCaptureNum, align 4, !tbaa !8
  br label %4

4:                                                ; preds = %1, %3
  %.0 = phi i32 [ 0, %3 ], [ -1, %1 ]
  ret i32 %.0
}